target datalayout = "e-m:e-p270:32:32-p271:32:32-p272:64:64-i64:64-i128:128-f80:128-n8:16:32:64-S128"
target triple = "x86_64-pc-linux-gnu"

%struct.PJconsts = type { ptr, ptr, ptr, ptr, ptr, ptr, ptr, ptr, ptr, ptr, ptr, ptr, i32, ptr, ptr, ptr, ptr, ptr, ptr, ptr, ptr, double, double, double, double, double, double, double, double, double, double, double, double, double, double, double, double, double, double, double, double, double, double, i32, i32, i32, i32, i32, i32, i32, i32, i32, i32, i32, ptr, ptr, ptr, ptr, ptr, ptr, double, double, double, double, double, double, double, double, double, double, double, i32, [7 x double], i32, ptr, ptr, double, double, i32, [4 x i8], %"class.std::shared_ptr", i8, double, i8, %"class.std::__cxx11::basic_string", %"class.std::__cxx11::basic_string", %"class.std::__cxx11::basic_string", i8, %"class.std::vector", i32, %"class.std::vector.3", i32, i8, i8, i8, ptr }
%"class.std::shared_ptr" = type { %"class.std::__shared_ptr" }
%"class.std::__shared_ptr" = type { ptr, %"class.std::__shared_count" }
%"class.std::__shared_count" = type { ptr }
%"class.std::__cxx11::basic_string" = type { %"struct.std::__cxx11::basic_string<char>::_Alloc_hider", i64, %union.anon }
%"struct.std::__cxx11::basic_string<char>::_Alloc_hider" = type { ptr }
%union.anon = type { i64, [8 x i8] }
%"class.std::vector" = type { %"struct.std::_Vector_base" }
%"struct.std::_Vector_base" = type { %"struct.std::_Vector_base<osgeo::proj::operation::GridDescription, std::allocator<osgeo::proj::operation::GridDescription>>::_Vector_impl" }
%"struct.std::_Vector_base<osgeo::proj::operation::GridDescription, std::allocator<osgeo::proj::operation::GridDescription>>::_Vector_impl" = type { %"struct.std::_Vector_base<osgeo::proj::operation::GridDescription, std::allocator<osgeo::proj::operation::GridDescription>>::_Vector_impl_data" }
%"struct.std::_Vector_base<osgeo::proj::operation::GridDescription, std::allocator<osgeo::proj::operation::GridDescription>>::_Vector_impl_data" = type { ptr, ptr, ptr }
%"class.std::vector.3" = type { %"struct.std::_Vector_base.4" }
%"struct.std::_Vector_base.4" = type { %"struct.std::_Vector_base<PJCoordOperation, std::allocator<PJCoordOperation>>::_Vector_impl" }
%"struct.std::_Vector_base<PJCoordOperation, std::allocator<PJCoordOperation>>::_Vector_impl" = type { %"struct.std::_Vector_base<PJCoordOperation, std::allocator<PJCoordOperation>>::_Vector_impl_data" }
%"struct.std::_Vector_base<PJCoordOperation, std::allocator<PJCoordOperation>>::_Vector_impl_data" = type { ptr, ptr, ptr }
%union.PROJVALUE = type { double }
%"struct.(anonymous namespace)::pj_opaque_molodensky" = type { double, double, double, double, double, i32 }

@.str.1 = private unnamed_addr constant [4 x i8] c"tdx\00", align 1
@.str.2 = private unnamed_addr constant [11 x i8] c"missing dx\00", align 1
@.str.3 = private unnamed_addr constant [4 x i8] c"ddx\00", align 1
@.str.4 = private unnamed_addr constant [4 x i8] c"tdy\00", align 1
@.str.5 = private unnamed_addr constant [11 x i8] c"missing dy\00", align 1
@.str.6 = private unnamed_addr constant [4 x i8] c"ddy\00", align 1
@.str.7 = private unnamed_addr constant [4 x i8] c"tdz\00", align 1
@.str.8 = private unnamed_addr constant [11 x i8] c"missing dz\00", align 1
@.str.9 = private unnamed_addr constant [4 x i8] c"ddz\00", align 1
@.str.10 = private unnamed_addr constant [4 x i8] c"tda\00", align 1
@.str.11 = private unnamed_addr constant [11 x i8] c"missing da\00", align 1
@.str.12 = private unnamed_addr constant [4 x i8] c"dda\00", align 1
@.str.13 = private unnamed_addr constant [4 x i8] c"tdf\00", align 1
@.str.14 = private unnamed_addr constant [11 x i8] c"missing df\00", align 1
@.str.15 = private unnamed_addr constant [4 x i8] c"ddf\00", align 1
@.str.16 = private unnamed_addr constant [10 x i8] c"tabridged\00", align 1

; Function Attrs: mustprogress uwtable
define hidden noundef ptr @_Z39pj_projection_specific_setup_molodenskyP8PJconsts(ptr noundef %0) #0 {
  %2 = alloca ptr, align 8
  %3 = alloca ptr, align 8
  %4 = alloca ptr, align 8
  %5 = alloca i32, align 4
  %6 = alloca %union.PROJVALUE, align 8
  %7 = alloca %union.PROJVALUE, align 8
  %8 = alloca %union.PROJVALUE, align 8
  %9 = alloca %union.PROJVALUE, align 8
  %10 = alloca %union.PROJVALUE, align 8
  %11 = alloca %union.PROJVALUE, align 8
  %12 = alloca %union.PROJVALUE, align 8
  %13 = alloca %union.PROJVALUE, align 8
  %14 = alloca %union.PROJVALUE, align 8
  %15 = alloca %union.PROJVALUE, align 8
  %16 = alloca %union.PROJVALUE, align 8
  store ptr %0, ptr %3, align 8, !tbaa !3
  call void @llvm.lifetime.start.p0(i64 8, ptr %4) #9
  %17 = call noalias ptr @calloc(i64 noundef 1, i64 noundef 48) #10
  store ptr %17, ptr %4, align 8, !tbaa !41
  %18 = load ptr, ptr %4, align 8, !tbaa !41
  %19 = icmp eq ptr null, %18
  br i1 %19, label %20, label %23

20:                                               ; preds = %1
  %21 = load ptr, ptr %3, align 8, !tbaa !3
  %22 = call noundef ptr @_Z21pj_default_destructorP8PJconstsi(ptr noundef %21, i32 noundef 4096)
  store ptr %22, ptr %2, align 8
  store i32 1, ptr %5, align 4
  br label %190

23:                                               ; preds = %1
  %24 = load ptr, ptr %4, align 8, !tbaa !41
  %25 = load ptr, ptr %3, align 8, !tbaa !3
  %26 = getelementptr inbounds nuw %struct.PJconsts, ptr %25, i32 0, i32 11
  store ptr %24, ptr %26, align 8, !tbaa !43
  %27 = load ptr, ptr %3, align 8, !tbaa !3
  %28 = getelementptr inbounds nuw %struct.PJconsts, ptr %27, i32 0, i32 17
  store ptr @_ZL24pj_molodensky_forward_4dR8PJ_COORDP8PJconsts, ptr %28, align 8, !tbaa !44
  %29 = load ptr, ptr %3, align 8, !tbaa !3
  %30 = getelementptr inbounds nuw %struct.PJconsts, ptr %29, i32 0, i32 18
  store ptr @_ZL24pj_molodensky_reverse_4dR8PJ_COORDP8PJconsts, ptr %30, align 8, !tbaa !45
  %31 = load ptr, ptr %3, align 8, !tbaa !3
  %32 = getelementptr inbounds nuw %struct.PJconsts, ptr %31, i32 0, i32 15
  store ptr @_ZL24pj_molodensky_forward_3d6PJ_LPZP8PJconsts, ptr %32, align 8, !tbaa !46
  %33 = load ptr, ptr %3, align 8, !tbaa !3
  %34 = getelementptr inbounds nuw %struct.PJconsts, ptr %33, i32 0, i32 16
  store ptr @_ZL24pj_molodensky_reverse_3d6PJ_XYZP8PJconsts, ptr %34, align 8, !tbaa !47
  %35 = load ptr, ptr %3, align 8, !tbaa !3
  %36 = getelementptr inbounds nuw %struct.PJconsts, ptr %35, i32 0, i32 13
  store ptr @_ZL24pj_molodensky_forward_2d5PJ_LPP8PJconsts, ptr %36, align 8, !tbaa !48
  %37 = load ptr, ptr %3, align 8, !tbaa !3
  %38 = getelementptr inbounds nuw %struct.PJconsts, ptr %37, i32 0, i32 14
  store ptr @_ZL24pj_molodensky_reverse_2d5PJ_XYP8PJconsts, ptr %38, align 8, !tbaa !49
  %39 = load ptr, ptr %3, align 8, !tbaa !3
  %40 = getelementptr inbounds nuw %struct.PJconsts, ptr %39, i32 0, i32 52
  store i32 4, ptr %40, align 4, !tbaa !39
  %41 = load ptr, ptr %3, align 8, !tbaa !3
  %42 = getelementptr inbounds nuw %struct.PJconsts, ptr %41, i32 0, i32 53
  store i32 4, ptr %42, align 8, !tbaa !40
  call void @llvm.lifetime.start.p0(i64 8, ptr %6) #9
  %43 = load ptr, ptr %3, align 8, !tbaa !3
  %44 = getelementptr inbounds nuw %struct.PJconsts, ptr %43, i32 0, i32 0
  %45 = load ptr, ptr %44, align 8, !tbaa !50
  %46 = load ptr, ptr %3, align 8, !tbaa !3
  %47 = getelementptr inbounds nuw %struct.PJconsts, ptr %46, i32 0, i32 3
  %48 = load ptr, ptr %47, align 8, !tbaa !51
  %49 = call i64 @_Z8pj_paramP6pj_ctxP8ARG_listPKc(ptr noundef %45, ptr noundef %48, ptr noundef @.str.1)
  %50 = getelementptr inbounds nuw %union.PROJVALUE, ptr %6, i32 0, i32 0
  store i64 %49, ptr %50, align 8
  %51 = load i32, ptr %6, align 8, !tbaa !52
  %52 = icmp ne i32 %51, 0
  %53 = xor i1 %52, true
  call void @llvm.lifetime.end.p0(i64 8, ptr %6) #9
  br i1 %53, label %54, label %58

54:                                               ; preds = %23
  %55 = load ptr, ptr %3, align 8, !tbaa !3
  call void (ptr, ptr, ...) @_Z14proj_log_errorPK8PJconstsPKcz(ptr noundef %55, ptr noundef @.str.2)
  %56 = load ptr, ptr %3, align 8, !tbaa !3
  %57 = call noundef ptr @_Z21pj_default_destructorP8PJconstsi(ptr noundef %56, i32 noundef 1026)
  store ptr %57, ptr %2, align 8
  store i32 1, ptr %5, align 4
  br label %190

58:                                               ; preds = %23
  call void @llvm.lifetime.start.p0(i64 8, ptr %7) #9
  %59 = load ptr, ptr %3, align 8, !tbaa !3
  %60 = getelementptr inbounds nuw %struct.PJconsts, ptr %59, i32 0, i32 0
  %61 = load ptr, ptr %60, align 8, !tbaa !50
  %62 = load ptr, ptr %3, align 8, !tbaa !3
  %63 = getelementptr inbounds nuw %struct.PJconsts, ptr %62, i32 0, i32 3
  %64 = load ptr, ptr %63, align 8, !tbaa !51
  %65 = call i64 @_Z8pj_paramP6pj_ctxP8ARG_listPKc(ptr noundef %61, ptr noundef %64, ptr noundef @.str.3)
  %66 = getelementptr inbounds nuw %union.PROJVALUE, ptr %7, i32 0, i32 0
  store i64 %65, ptr %66, align 8
  %67 = load double, ptr %7, align 8, !tbaa !52
  %68 = load ptr, ptr %4, align 8, !tbaa !41
  %69 = getelementptr inbounds nuw %"struct.(anonymous namespace)::pj_opaque_molodensky", ptr %68, i32 0, i32 0
  store double %67, ptr %69, align 8, !tbaa !53
  call void @llvm.lifetime.end.p0(i64 8, ptr %7) #9
  call void @llvm.lifetime.start.p0(i64 8, ptr %8) #9
  %70 = load ptr, ptr %3, align 8, !tbaa !3
  %71 = getelementptr inbounds nuw %struct.PJconsts, ptr %70, i32 0, i32 0
  %72 = load ptr, ptr %71, align 8, !tbaa !50
  %73 = load ptr, ptr %3, align 8, !tbaa !3
  %74 = getelementptr inbounds nuw %struct.PJconsts, ptr %73, i32 0, i32 3
  %75 = load ptr, ptr %74, align 8, !tbaa !51
  %76 = call i64 @_Z8pj_paramP6pj_ctxP8ARG_listPKc(ptr noundef %72, ptr noundef %75, ptr noundef @.str.4)
  %77 = getelementptr inbounds nuw %union.PROJVALUE, ptr %8, i32 0, i32 0
  store i64 %76, ptr %77, align 8
  %78 = load i32, ptr %8, align 8, !tbaa !52
  %79 = icmp ne i32 %78, 0
  %80 = xor i1 %79, true
  call void @llvm.lifetime.end.p0(i64 8, ptr %8) #9
  br i1 %80, label %81, label %85

81:                                               ; preds = %58
  %82 = load ptr, ptr %3, align 8, !tbaa !3
  call void (ptr, ptr, ...) @_Z14proj_log_errorPK8PJconstsPKcz(ptr noundef %82, ptr noundef @.str.5)
  %83 = load ptr, ptr %3, align 8, !tbaa !3
  %84 = call noundef ptr @_Z21pj_default_destructorP8PJconstsi(ptr noundef %83, i32 noundef 1026)
  store ptr %84, ptr %2, align 8
  store i32 1, ptr %5, align 4
  br label %190

85:                                               ; preds = %58
  call void @llvm.lifetime.start.p0(i64 8, ptr %9) #9
  %86 = load ptr, ptr %3, align 8, !tbaa !3
  %87 = getelementptr inbounds nuw %struct.PJconsts, ptr %86, i32 0, i32 0
  %88 = load ptr, ptr %87, align 8, !tbaa !50
  %89 = load ptr, ptr %3, align 8, !tbaa !3
  %90 = getelementptr inbounds nuw %struct.PJconsts, ptr %89, i32 0, i32 3
  %91 = load ptr, ptr %90, align 8, !tbaa !51
  %92 = call i64 @_Z8pj_paramP6pj_ctxP8ARG_listPKc(ptr noundef %88, ptr noundef %91, ptr noundef @.str.6)
  %93 = getelementptr inbounds nuw %union.PROJVALUE, ptr %9, i32 0, i32 0
  store i64 %92, ptr %93, align 8
  %94 = load double, ptr %9, align 8, !tbaa !52
  %95 = load ptr, ptr %4, align 8, !tbaa !41
  %96 = getelementptr inbounds nuw %"struct.(anonymous namespace)::pj_opaque_molodensky", ptr %95, i32 0, i32 1
  store double %94, ptr %96, align 8, !tbaa !55
  call void @llvm.lifetime.end.p0(i64 8, ptr %9) #9
  call void @llvm.lifetime.start.p0(i64 8, ptr %10) #9
  %97 = load ptr, ptr %3, align 8, !tbaa !3
  %98 = getelementptr inbounds nuw %struct.PJconsts, ptr %97, i32 0, i32 0
  %99 = load ptr, ptr %98, align 8, !tbaa !50
  %100 = load ptr, ptr %3, align 8, !tbaa !3
  %101 = getelementptr inbounds nuw %struct.PJconsts, ptr %100, i32 0, i32 3
  %102 = load ptr, ptr %101, align 8, !tbaa !51
  %103 = call i64 @_Z8pj_paramP6pj_ctxP8ARG_listPKc(ptr noundef %99, ptr noundef %102, ptr noundef @.str.7)
  %104 = getelementptr inbounds nuw %union.PROJVALUE, ptr %10, i32 0, i32 0
  store i64 %103, ptr %104, align 8
  %105 = load i32, ptr %10, align 8, !tbaa !52
  %106 = icmp ne i32 %105, 0
  %107 = xor i1 %106, true
  call void @llvm.lifetime.end.p0(i64 8, ptr %10) #9
  br i1 %107, label %108, label %112

108:                                              ; preds = %85
  %109 = load ptr, ptr %3, align 8, !tbaa !3
  call void (ptr, ptr, ...) @_Z14proj_log_errorPK8PJconstsPKcz(ptr noundef %109, ptr noundef @.str.8)
  %110 = load ptr, ptr %3, align 8, !tbaa !3
  %111 = call noundef ptr @_Z21pj_default_destructorP8PJconstsi(ptr noundef %110, i32 noundef 1026)
  store ptr %111, ptr %2, align 8
  store i32 1, ptr %5, align 4
  br label %190

112:                                              ; preds = %85
  call void @llvm.lifetime.start.p0(i64 8, ptr %11) #9
  %113 = load ptr, ptr %3, align 8, !tbaa !3
  %114 = getelementptr inbounds nuw %struct.PJconsts, ptr %113, i32 0, i32 0
  %115 = load ptr, ptr %114, align 8, !tbaa !50
  %116 = load ptr, ptr %3, align 8, !tbaa !3
  %117 = getelementptr inbounds nuw %struct.PJconsts, ptr %116, i32 0, i32 3
  %118 = load ptr, ptr %117, align 8, !tbaa !51
  %119 = call i64 @_Z8pj_paramP6pj_ctxP8ARG_listPKc(ptr noundef %115, ptr noundef %118, ptr noundef @.str.9)
  %120 = getelementptr inbounds nuw %union.PROJVALUE, ptr %11, i32 0, i32 0
  store i64 %119, ptr %120, align 8
  %121 = load double, ptr %11, align 8, !tbaa !52
  %122 = load ptr, ptr %4, align 8, !tbaa !41
  %123 = getelementptr inbounds nuw %"struct.(anonymous namespace)::pj_opaque_molodensky", ptr %122, i32 0, i32 2
  store double %121, ptr %123, align 8, !tbaa !56
  call void @llvm.lifetime.end.p0(i64 8, ptr %11) #9
  call void @llvm.lifetime.start.p0(i64 8, ptr %12) #9
  %124 = load ptr, ptr %3, align 8, !tbaa !3
  %125 = getelementptr inbounds nuw %struct.PJconsts, ptr %124, i32 0, i32 0
  %126 = load ptr, ptr %125, align 8, !tbaa !50
  %127 = load ptr, ptr %3, align 8, !tbaa !3
  %128 = getelementptr inbounds nuw %struct.PJconsts, ptr %127, i32 0, i32 3
  %129 = load ptr, ptr %128, align 8, !tbaa !51
  %130 = call i64 @_Z8pj_paramP6pj_ctxP8ARG_listPKc(ptr noundef %126, ptr noundef %129, ptr noundef @.str.10)
  %131 = getelementptr inbounds nuw %union.PROJVALUE, ptr %12, i32 0, i32 0
  store i64 %130, ptr %131, align 8
  %132 = load i32, ptr %12, align 8, !tbaa !52
  %133 = icmp ne i32 %132, 0
  %134 = xor i1 %133, true
  call void @llvm.lifetime.end.p0(i64 8, ptr %12) #9
  br i1 %134, label %135, label %139

135:                                              ; preds = %112
  %136 = load ptr, ptr %3, align 8, !tbaa !3
  call void (ptr, ptr, ...) @_Z14proj_log_errorPK8PJconstsPKcz(ptr noundef %136, ptr noundef @.str.11)
  %137 = load ptr, ptr %3, align 8, !tbaa !3
  %138 = call noundef ptr @_Z21pj_default_destructorP8PJconstsi(ptr noundef %137, i32 noundef 1026)
  store ptr %138, ptr %2, align 8
  store i32 1, ptr %5, align 4
  br label %190

139:                                              ; preds = %112
  call void @llvm.lifetime.start.p0(i64 8, ptr %13) #9
  %140 = load ptr, ptr %3, align 8, !tbaa !3
  %141 = getelementptr inbounds nuw %struct.PJconsts, ptr %140, i32 0, i32 0
  %142 = load ptr, ptr %141, align 8, !tbaa !50
  %143 = load ptr, ptr %3, align 8, !tbaa !3
  %144 = getelementptr inbounds nuw %struct.PJconsts, ptr %143, i32 0, i32 3
  %145 = load ptr, ptr %144, align 8, !tbaa !51
  %146 = call i64 @_Z8pj_paramP6pj_ctxP8ARG_listPKc(ptr noundef %142, ptr noundef %145, ptr noundef @.str.12)
  %147 = getelementptr inbounds nuw %union.PROJVALUE, ptr %13, i32 0, i32 0
  store i64 %146, ptr %147, align 8
  %148 = load double, ptr %13, align 8, !tbaa !52
  %149 = load ptr, ptr %4, align 8, !tbaa !41
  %150 = getelementptr inbounds nuw %"struct.(anonymous namespace)::pj_opaque_molodensky", ptr %149, i32 0, i32 3
  store double %148, ptr %150, align 8, !tbaa !57
  call void @llvm.lifetime.end.p0(i64 8, ptr %13) #9
  call void @llvm.lifetime.start.p0(i64 8, ptr %14) #9
  %151 = load ptr, ptr %3, align 8, !tbaa !3
  %152 = getelementptr inbounds nuw %struct.PJconsts, ptr %151, i32 0, i32 0
  %153 = load ptr, ptr %152, align 8, !tbaa !50
  %154 = load ptr, ptr %3, align 8, !tbaa !3
  %155 = getelementptr inbounds nuw %struct.PJconsts, ptr %154, i32 0, i32 3
  %156 = load ptr, ptr %155, align 8, !tbaa !51
  %157 = call i64 @_Z8pj_paramP6pj_ctxP8ARG_listPKc(ptr noundef %153, ptr noundef %156, ptr noundef @.str.13)
  %158 = getelementptr inbounds nuw %union.PROJVALUE, ptr %14, i32 0, i32 0
  store i64 %157, ptr %158, align 8
  %159 = load i32, ptr %14, align 8, !tbaa !52
  %160 = icmp ne i32 %159, 0
  %161 = xor i1 %160, true
  call void @llvm.lifetime.end.p0(i64 8, ptr %14) #9
  br i1 %161, label %162, label %166

162:                                              ; preds = %139
  %163 = load ptr, ptr %3, align 8, !tbaa !3
  call void (ptr, ptr, ...) @_Z14proj_log_errorPK8PJconstsPKcz(ptr noundef %163, ptr noundef @.str.14)
  %164 = load ptr, ptr %3, align 8, !tbaa !3
  %165 = call noundef ptr @_Z21pj_default_destructorP8PJconstsi(ptr noundef %164, i32 noundef 1026)
  store ptr %165, ptr %2, align 8
  store i32 1, ptr %5, align 4
  br label %190

166:                                              ; preds = %139
  call void @llvm.lifetime.start.p0(i64 8, ptr %15) #9
  %167 = load ptr, ptr %3, align 8, !tbaa !3
  %168 = getelementptr inbounds nuw %struct.PJconsts, ptr %167, i32 0, i32 0
  %169 = load ptr, ptr %168, align 8, !tbaa !50
  %170 = load ptr, ptr %3, align 8, !tbaa !3
  %171 = getelementptr inbounds nuw %struct.PJconsts, ptr %170, i32 0, i32 3
  %172 = load ptr, ptr %171, align 8, !tbaa !51
  %173 = call i64 @_Z8pj_paramP6pj_ctxP8ARG_listPKc(ptr noundef %169, ptr noundef %172, ptr noundef @.str.15)
  %174 = getelementptr inbounds nuw %union.PROJVALUE, ptr %15, i32 0, i32 0
  store i64 %173, ptr %174, align 8
  %175 = load double, ptr %15, align 8, !tbaa !52
  %176 = load ptr, ptr %4, align 8, !tbaa !41
  %177 = getelementptr inbounds nuw %"struct.(anonymous namespace)::pj_opaque_molodensky", ptr %176, i32 0, i32 4
  store double %175, ptr %177, align 8, !tbaa !58
  call void @llvm.lifetime.end.p0(i64 8, ptr %15) #9
  call void @llvm.lifetime.start.p0(i64 8, ptr %16) #9
  %178 = load ptr, ptr %3, align 8, !tbaa !3
  %179 = getelementptr inbounds nuw %struct.PJconsts, ptr %178, i32 0, i32 0
  %180 = load ptr, ptr %179, align 8, !tbaa !50
  %181 = load ptr, ptr %3, align 8, !tbaa !3
  %182 = getelementptr inbounds nuw %struct.PJconsts, ptr %181, i32 0, i32 3
  %183 = load ptr, ptr %182, align 8, !tbaa !51
  %184 = call i64 @_Z8pj_paramP6pj_ctxP8ARG_listPKc(ptr noundef %180, ptr noundef %183, ptr noundef @.str.16)
  %185 = getelementptr inbounds nuw %union.PROJVALUE, ptr %16, i32 0, i32 0
  store i64 %184, ptr %185, align 8
  %186 = load i32, ptr %16, align 8, !tbaa !52
  %187 = load ptr, ptr %4, align 8, !tbaa !41
  %188 = getelementptr inbounds nuw %"struct.(anonymous namespace)::pj_opaque_molodensky", ptr %187, i32 0, i32 5
  store i32 %186, ptr %188, align 8, !tbaa !59
  call void @llvm.lifetime.end.p0(i64 8, ptr %16) #9
  %189 = load ptr, ptr %3, align 8, !tbaa !3
  store ptr %189, ptr %2, align 8
  store i32 1, ptr %5, align 4
  br label %190

190:                                              ; preds = %166, %162, %135, %108, %81, %54, %20
  call void @llvm.lifetime.end.p0(i64 8, ptr %4) #9
  %191 = load ptr, ptr %2, align 8
  ret ptr %191
}