; Function Attrs: mustprogress uwtable
define hidden noundef ptr @_Z39pj_projection_specific_setup_molodenskyP8PJconsts(ptr noundef %0) local_unnamed_addr #0 {
  %2 = tail call noalias dereferenceable_or_null(48) ptr @calloc(i64 noundef 1, i64 noundef 48) #8
  %3 = icmp eq ptr %2, null
  br i1 %3, label %4, label %6

4:                                                ; preds = %1
  %5 = tail call noundef ptr @_Z21pj_default_destructorP8PJconstsi(ptr noundef %0, i32 noundef 4096)
  br label %75

6:                                                ; preds = %1
  %7 = getelementptr inbounds nuw i8, ptr %0, i64 88
  store ptr %2, ptr %7, align 8, !tbaa !40
  %8 = getelementptr inbounds nuw i8, ptr %0, i64 136
  store ptr @_ZL24pj_molodensky_forward_4dR8PJ_COORDP8PJconsts, ptr %8, align 8, !tbaa !41
  %9 = getelementptr inbounds nuw i8, ptr %0, i64 144
  store ptr @_ZL24pj_molodensky_reverse_4dR8PJ_COORDP8PJconsts, ptr %9, align 8, !tbaa !42
  %10 = getelementptr inbounds nuw i8, ptr %0, i64 120
  store ptr @_ZL24pj_molodensky_forward_3d6PJ_LPZP8PJconsts, ptr %10, align 8, !tbaa !43
  %11 = getelementptr inbounds nuw i8, ptr %0, i64 128
  store ptr @_ZL24pj_molodensky_reverse_3d6PJ_XYZP8PJconsts, ptr %11, align 8, !tbaa !44
  %12 = getelementptr inbounds nuw i8, ptr %0, i64 104
  store ptr @_ZL24pj_molodensky_forward_2d5PJ_LPP8PJconsts, ptr %12, align 8, !tbaa !45
  %13 = getelementptr inbounds nuw i8, ptr %0, i64 112
  store ptr @_ZL24pj_molodensky_reverse_2d5PJ_XYP8PJconsts, ptr %13, align 8, !tbaa !46
  %14 = getelementptr inbounds nuw i8, ptr %0, i64 380
  store i32 4, ptr %14, align 4, !tbaa !38
  %15 = getelementptr inbounds nuw i8, ptr %0, i64 384
  store i32 4, ptr %15, align 8, !tbaa !39
  %16 = load ptr, ptr %0, align 8, !tbaa !47
  %17 = getelementptr inbounds nuw i8, ptr %0, i64 24
  %18 = load ptr, ptr %17, align 8, !tbaa !48
  %19 = tail call i64 @_Z8pj_paramP6pj_ctxP8ARG_listPKc(ptr noundef %16, ptr noundef %18, ptr noundef nonnull @.str.1)
  %20 = and i64 %19, 4294967295
  %.not = icmp eq i64 %20, 0
  br i1 %.not, label %21, label %23

21:                                               ; preds = %6
  tail call void (ptr, ptr, ...) @_Z14proj_log_errorPK8PJconstsPKcz(ptr noundef nonnull %0, ptr noundef nonnull @.str.2)
  %22 = tail call noundef ptr @_Z21pj_default_destructorP8PJconstsi(ptr noundef nonnull %0, i32 noundef 1026)
  br label %75

23:                                               ; preds = %6
  %24 = load ptr, ptr %0, align 8, !tbaa !47
  %25 = load ptr, ptr %17, align 8, !tbaa !48
  %26 = tail call i64 @_Z8pj_paramP6pj_ctxP8ARG_listPKc(ptr noundef %24, ptr noundef %25, ptr noundef nonnull @.str.3)
  store i64 %26, ptr %2, align 8, !tbaa !49
  %27 = load ptr, ptr %0, align 8, !tbaa !47
  %28 = load ptr, ptr %17, align 8, !tbaa !48
  %29 = tail call i64 @_Z8pj_paramP6pj_ctxP8ARG_listPKc(ptr noundef %27, ptr noundef %28, ptr noundef nonnull @.str.4)
  %30 = and i64 %29, 4294967295
  %.not68 = icmp eq i64 %30, 0
  br i1 %.not68, label %31, label %33

31:                                               ; preds = %23
  tail call void (ptr, ptr, ...) @_Z14proj_log_errorPK8PJconstsPKcz(ptr noundef nonnull %0, ptr noundef nonnull @.str.5)
  %32 = tail call noundef ptr @_Z21pj_default_destructorP8PJconstsi(ptr noundef nonnull %0, i32 noundef 1026)
  br label %75

33:                                               ; preds = %23
  %34 = load ptr, ptr %0, align 8, !tbaa !47
  %35 = load ptr, ptr %17, align 8, !tbaa !48
  %36 = tail call i64 @_Z8pj_paramP6pj_ctxP8ARG_listPKc(ptr noundef %34, ptr noundef %35, ptr noundef nonnull @.str.6)
  %37 = getelementptr inbounds nuw i8, ptr %2, i64 8
  store i64 %36, ptr %37, align 8, !tbaa !51
  %38 = load ptr, ptr %0, align 8, !tbaa !47
  %39 = load ptr, ptr %17, align 8, !tbaa !48
  %40 = tail call i64 @_Z8pj_paramP6pj_ctxP8ARG_listPKc(ptr noundef %38, ptr noundef %39, ptr noundef nonnull @.str.7)
  %41 = and i64 %40, 4294967295
  %.not69 = icmp eq i64 %41, 0
  br i1 %.not69, label %42, label %44

42:                                               ; preds = %33
  tail call void (ptr, ptr, ...) @_Z14proj_log_errorPK8PJconstsPKcz(ptr noundef nonnull %0, ptr noundef nonnull @.str.8)
  %43 = tail call noundef ptr @_Z21pj_default_destructorP8PJconstsi(ptr noundef nonnull %0, i32 noundef 1026)
  br label %75

44:                                               ; preds = %33
  %45 = load ptr, ptr %0, align 8, !tbaa !47
  %46 = load ptr, ptr %17, align 8, !tbaa !48
  %47 = tail call i64 @_Z8pj_paramP6pj_ctxP8ARG_listPKc(ptr noundef %45, ptr noundef %46, ptr noundef nonnull @.str.9)
  %48 = getelementptr inbounds nuw i8, ptr %2, i64 16
  store i64 %47, ptr %48, align 8, !tbaa !52
  %49 = load ptr, ptr %0, align 8, !tbaa !47
  %50 = load ptr, ptr %17, align 8, !tbaa !48
  %51 = tail call i64 @_Z8pj_paramP6pj_ctxP8ARG_listPKc(ptr noundef %49, ptr noundef %50, ptr noundef nonnull @.str.10)
  %52 = and i64 %51, 4294967295
  %.not70 = icmp eq i64 %52, 0
  br i1 %.not70, label %53, label %55

53:                                               ; preds = %44
  tail call void (ptr, ptr, ...) @_Z14proj_log_errorPK8PJconstsPKcz(ptr noundef nonnull %0, ptr noundef nonnull @.str.11)
  %54 = tail call noundef ptr @_Z21pj_default_destructorP8PJconstsi(ptr noundef nonnull %0, i32 noundef 1026)
  br label %75

55:                                               ; preds = %44
  %56 = load ptr, ptr %0, align 8, !tbaa !47
  %57 = load ptr, ptr %17, align 8, !tbaa !48
  %58 = tail call i64 @_Z8pj_paramP6pj_ctxP8ARG_listPKc(ptr noundef %56, ptr noundef %57, ptr noundef nonnull @.str.12)
  %59 = getelementptr inbounds nuw i8, ptr %2, i64 24
  store i64 %58, ptr %59, align 8, !tbaa !53
  %60 = load ptr, ptr %0, align 8, !tbaa !47
  %61 = load ptr, ptr %17, align 8, !tbaa !48
  %62 = tail call i64 @_Z8pj_paramP6pj_ctxP8ARG_listPKc(ptr noundef %60, ptr noundef %61, ptr noundef nonnull @.str.13)
  %63 = and i64 %62, 4294967295
  %.not71 = icmp eq i64 %63, 0
  br i1 %.not71, label %64, label %66

64:                                               ; preds = %55
  tail call void (ptr, ptr, ...) @_Z14proj_log_errorPK8PJconstsPKcz(ptr noundef nonnull %0, ptr noundef nonnull @.str.14)
  %65 = tail call noundef ptr @_Z21pj_default_destructorP8PJconstsi(ptr noundef nonnull %0, i32 noundef 1026)
  br label %75

66:                                               ; preds = %55
  %67 = load ptr, ptr %0, align 8, !tbaa !47
  %68 = load ptr, ptr %17, align 8, !tbaa !48
  %69 = tail call i64 @_Z8pj_paramP6pj_ctxP8ARG_listPKc(ptr noundef %67, ptr noundef %68, ptr noundef nonnull @.str.15)
  %70 = getelementptr inbounds nuw i8, ptr %2, i64 32
  store i64 %69, ptr %70, align 8, !tbaa !54
  %71 = load ptr, ptr %0, align 8, !tbaa !47
  %72 = load ptr, ptr %17, align 8, !tbaa !48
  %73 = tail call i64 @_Z8pj_paramP6pj_ctxP8ARG_listPKc(ptr noundef %71, ptr noundef %72, ptr noundef nonnull @.str.16)
  %.sroa.0.0.extract.trunc = trunc i64 %73 to i32
  %74 = getelementptr inbounds nuw i8, ptr %2, i64 40
  store i32 %.sroa.0.0.extract.trunc, ptr %74, align 8, !tbaa !55
  br label %75

75:                                               ; preds = %66, %64, %53, %42, %31, %21, %4
  %.0 = phi ptr [ %5, %4 ], [ %22, %21 ], [ %32, %31 ], [ %43, %42 ], [ %54, %53 ], [ %65, %64 ], [ %0, %66 ]
  ret ptr %.0
}